; ModuleID = '19/515.c'
source_filename = "19/515.c"
target datalayout = "e-m:e-p270:32:32-p271:32:32-p272:64:64-i64:64-f80:128-n8:16:32:64-S128"
target triple = "x86_64-pc-linux-gnu"

@.str = private unnamed_addr constant [5 x i8] c"%s%s\00", align 1
@.str.1 = private unnamed_addr constant [3 x i8] c"%s\00", align 1
@.str.2 = private unnamed_addr constant [4 x i8] c" %s\00", align 1

; Function Attrs: noinline nounwind uwtable
define dso_local i32 @main() #0 {
  %1 = alloca i32, align 4
  %2 = alloca [100 x i8], align 16
  %3 = alloca [50 x [15 x i8]], align 16
  %4 = alloca [15 x i8], align 1
  %5 = alloca [15 x i8], align 1
  %6 = alloca i8*, align 8
  %7 = alloca i32, align 4
  %8 = alloca i32, align 4
  store i32 0, i32* %1, align 4
  %9 = getelementptr inbounds [100 x i8], [100 x i8]* %2, i64 0, i64 0
  %10 = call i32 (i8*, ...) bitcast (i32 (...)* @gets to i32 (i8*, ...)*)(i8* %9)
  %11 = getelementptr inbounds [15 x i8], [15 x i8]* %5, i64 0, i64 0
  %12 = getelementptr inbounds [15 x i8], [15 x i8]* %4, i64 0, i64 0
  %13 = call i32 (i8*, ...) @__isoc99_scanf(i8* getelementptr inbounds ([5 x i8], [5 x i8]* @.str, i64 0, i64 0), i8* %11, i8* %12)
  %14 = getelementptr inbounds [100 x i8], [100 x i8]* %2, i64 0, i64 0
  store i8* %14, i8** %6, align 8
  store i32 0, i32* %7, align 4
  br label %15

15:                                               ; preds = %43, %0
  %16 = load i8*, i8** %6, align 8
  %17 = load i8, i8* %16, align 1
  %18 = sext i8 %17 to i32
  %19 = icmp ne i32 %18, 0
  br i1 %19, label %20, label %44

20:                                               ; preds = %15
  %21 = load i8*, i8** %6, align 8
  %22 = load i32, i32* %7, align 4
  %23 = sext i32 %22 to i64
  %24 = getelementptr inbounds [50 x [15 x i8]], [50 x [15 x i8]]* %3, i64 0, i64 %23
  %25 = getelementptr inbounds [15 x i8], [15 x i8]* %24, i64 0, i64 0
  %26 = call i32 (i8*, i8*, ...) @__isoc99_sscanf(i8* %21, i8* getelementptr inbounds ([3 x i8], [3 x i8]* @.str.1, i64 0, i64 0), i8* %25) #4
  %27 = load i32, i32* %7, align 4
  %28 = sext i32 %27 to i64
  %29 = getelementptr inbounds [50 x [15 x i8]], [50 x [15 x i8]]* %3, i64 0, i64 %28
  %30 = getelementptr inbounds [15 x i8], [15 x i8]* %29, i64 0, i64 0
  %31 = call i64 @strlen(i8* %30) #5
  %32 = load i8*, i8** %6, align 8
  %33 = getelementptr inbounds i8, i8* %32, i64 %31
  store i8* %33, i8** %6, align 8
  %34 = load i32, i32* %7, align 4
  %35 = add nsw i32 %34, 1
  store i32 %35, i32* %7, align 4
  %36 = load i8*, i8** %6, align 8
  %37 = load i8, i8* %36, align 1
  %38 = sext i8 %37 to i32
  %39 = icmp eq i32 %38, 32
  br i1 %39, label %40, label %43

40:                                               ; preds = %20
  %41 = load i8*, i8** %6, align 8
  %42 = getelementptr inbounds i8, i8* %41, i32 1
  store i8* %42, i8** %6, align 8
  br label %43

43:                                               ; preds = %40, %20
  br label %15

44:                                               ; preds = %15
  store i32 0, i32* %8, align 4
  br label %45

45:                                               ; preds = %65, %44
  %46 = load i32, i32* %8, align 4
  %47 = load i32, i32* %7, align 4
  %48 = icmp slt i32 %46, %47
  br i1 %48, label %49, label %68

49:                                               ; preds = %45
  %50 = load i32, i32* %8, align 4
  %51 = sext i32 %50 to i64
  %52 = getelementptr inbounds [50 x [15 x i8]], [50 x [15 x i8]]* %3, i64 0, i64 %51
  %53 = getelementptr inbounds [15 x i8], [15 x i8]* %52, i64 0, i64 0
  %54 = getelementptr inbounds [15 x i8], [15 x i8]* %5, i64 0, i64 0
  %55 = call i32 @strcmp(i8* %53, i8* %54) #5
  %56 = icmp eq i32 %55, 0
  br i1 %56, label %57, label %64

57:                                               ; preds = %49
  %58 = load i32, i32* %8, align 4
  %59 = sext i32 %58 to i64
  %60 = getelementptr inbounds [50 x [15 x i8]], [50 x [15 x i8]]* %3, i64 0, i64 %59
  %61 = getelementptr inbounds [15 x i8], [15 x i8]* %60, i64 0, i64 0
  %62 = getelementptr inbounds [15 x i8], [15 x i8]* %4, i64 0, i64 0
  %63 = call i8* @strcpy(i8* %61, i8* %62) #4
  br label %64

64:                                               ; preds = %57, %49
  br label %65

65:                                               ; preds = %64
  %66 = load i32, i32* %8, align 4
  %67 = add nsw i32 %66, 1
  store i32 %67, i32* %8, align 4
  br label %45

68:                                               ; preds = %45
  %69 = getelementptr inbounds [50 x [15 x i8]], [50 x [15 x i8]]* %3, i64 0, i64 0
  %70 = getelementptr inbounds [15 x i8], [15 x i8]* %69, i64 0, i64 0
  %71 = call i32 (i8*, ...) @printf(i8* getelementptr inbounds ([3 x i8], [3 x i8]* @.str.1, i64 0, i64 0), i8* %70)
  store i32 1, i32* %8, align 4
  br label %72

72:                                               ; preds = %82, %68
  %73 = load i32, i32* %8, align 4
  %74 = load i32, i32* %7, align 4
  %75 = icmp slt i32 %73, %74
  br i1 %75, label %76, label %85

76:                                               ; preds = %72
  %77 = load i32, i32* %8, align 4
  %78 = sext i32 %77 to i64
  %79 = getelementptr inbounds [50 x [15 x i8]], [50 x [15 x i8]]* %3, i64 0, i64 %78
  %80 = getelementptr inbounds [15 x i8], [15 x i8]* %79, i64 0, i64 0
  %81 = call i32 (i8*, ...) @printf(i8* getelementptr inbounds ([4 x i8], [4 x i8]* @.str.2, i64 0, i64 0), i8* %80)
  br label %82

82:                                               ; preds = %76
  %83 = load i32, i32* %8, align 4
  %84 = add nsw i32 %83, 1
  store i32 %84, i32* %8, align 4
  br label %72

85:                                               ; preds = %72
  %86 = load i32, i32* %1, align 4
  ret i32 %86
}

declare dso_local i32 @gets(...) #1

declare dso_local i32 @__isoc99_scanf(i8*, ...) #1

; Function Attrs: nounwind
declare dso_local i32 @__isoc99_sscanf(i8*, i8*, ...) #2

; Function Attrs: nounwind readonly
declare dso_local i64 @strlen(i8*) #3

; Function Attrs: nounwind readonly
declare dso_local i32 @strcmp(i8*, i8*) #3

; Function Attrs: nounwind
declare dso_local i8* @strcpy(i8*, i8*) #2

declare dso_local i32 @printf(i8*, ...) #1


!llvm.module.flags = !{!0}
!llvm.ident = !{!1}

!0 = !{i32 1, !"wchar_size", i32 4}
!1 = !{!"clang version 10.0.0-4ubuntu1 "}
