; ModuleID = 'source-C-CXX/18/515.c'
source_filename = "source-C-CXX/18/515.c"
target datalayout = "e-m:e-p270:32:32-p271:32:32-p272:64:64-i64:64-f80:128-n8:16:32:64-S128"
target triple = "x86_64-pc-linux-gnu"

@.str = private unnamed_addr constant [5 x i8] c"%s%s\00", align 1
@.str.1 = private unnamed_addr constant [3 x i8] c"%s\00", align 1
@.str.2 = private unnamed_addr constant [4 x i8] c" %s\00", align 1

; Function Attrs: nounwind sspstrong uwtable
define dso_local i32 @main() local_unnamed_addr #0 {
  %1 = alloca [100 x i8], align 16
  %2 = alloca [50 x [15 x i8]], align 16
  %3 = alloca [15 x i8], align 1
  %4 = alloca [15 x i8], align 1
  %5 = getelementptr inbounds [100 x i8], [100 x i8]* %1, i64 0, i64 0
  call void @llvm.lifetime.start.p0i8(i64 100, i8* nonnull %5) #6
  %6 = getelementptr inbounds [50 x [15 x i8]], [50 x [15 x i8]]* %2, i64 0, i64 0, i64 0
  call void @llvm.lifetime.start.p0i8(i64 750, i8* nonnull %6) #6
  %7 = getelementptr inbounds [15 x i8], [15 x i8]* %3, i64 0, i64 0
  call void @llvm.lifetime.start.p0i8(i64 15, i8* nonnull %7) #6
  %8 = getelementptr inbounds [15 x i8], [15 x i8]* %4, i64 0, i64 0
  call void @llvm.lifetime.start.p0i8(i64 15, i8* nonnull %8) #6
  %9 = call i32 (i8*, ...) bitcast (i32 (...)* @gets to i32 (i8*, ...)*)(i8* nonnull %5) #6
  %10 = call i32 (i8*, ...) @__isoc99_scanf(i8* getelementptr inbounds ([5 x i8], [5 x i8]* @.str, i64 0, i64 0), i8* nonnull %8, i8* nonnull %7)
  %11 = load i8, i8* %5, align 16, !tbaa !5
  %12 = icmp eq i8 %11, 0
  br i1 %12, label %42, label %18

13:                                               ; preds = %18
  %14 = trunc i64 %25 to i32
  %15 = icmp eq i32 %14, 0
  br i1 %15, label %42, label %16

16:                                               ; preds = %13
  %17 = and i64 %25, 4294967295
  br label %32

18:                                               ; preds = %0, %18
  %19 = phi i64 [ %25, %18 ], [ 0, %0 ]
  %20 = phi i8* [ %29, %18 ], [ %5, %0 ]
  %21 = getelementptr inbounds [50 x [15 x i8]], [50 x [15 x i8]]* %2, i64 0, i64 %19, i64 0
  %22 = call i32 (i8*, i8*, ...) @__isoc99_sscanf(i8* nonnull %20, i8* getelementptr inbounds ([3 x i8], [3 x i8]* @.str.1, i64 0, i64 0), i8* nonnull %21) #6
  %23 = call i64 @strlen(i8* noundef nonnull %21) #7
  %24 = getelementptr inbounds i8, i8* %20, i64 %23
  %25 = add nuw i64 %19, 1
  %26 = load i8, i8* %24, align 1, !tbaa !5
  %27 = icmp eq i8 %26, 32
  %28 = zext i1 %27 to i64
  %29 = getelementptr i8, i8* %24, i64 %28
  %30 = load i8, i8* %29, align 1, !tbaa !5
  %31 = icmp eq i8 %30, 0
  br i1 %31, label %13, label %18, !llvm.loop !8

32:                                               ; preds = %16, %39
  %33 = phi i64 [ 0, %16 ], [ %40, %39 ]
  %34 = getelementptr inbounds [50 x [15 x i8]], [50 x [15 x i8]]* %2, i64 0, i64 %33, i64 0
  %35 = call i32 @strcmp(i8* noundef nonnull %34, i8* noundef nonnull %8) #7
  %36 = icmp eq i32 %35, 0
  br i1 %36, label %37, label %39

37:                                               ; preds = %32
  %38 = call i8* @strcpy(i8* noundef nonnull %34, i8* noundef nonnull %7) #6
  br label %39

39:                                               ; preds = %32, %37
  %40 = add nuw nsw i64 %33, 1
  %41 = icmp eq i64 %40, %17
  br i1 %41, label %44, label %32, !llvm.loop !10

42:                                               ; preds = %13, %0
  %43 = call i32 (i8*, ...) @printf(i8* nonnull dereferenceable(1) getelementptr inbounds ([3 x i8], [3 x i8]* @.str.1, i64 0, i64 0), i8* nonnull %6)
  br label %55

44:                                               ; preds = %39
  %45 = call i32 (i8*, ...) @printf(i8* nonnull dereferenceable(1) getelementptr inbounds ([3 x i8], [3 x i8]* @.str.1, i64 0, i64 0), i8* nonnull %6)
  %46 = icmp ugt i32 %14, 1
  br i1 %46, label %47, label %55

47:                                               ; preds = %44
  %48 = and i64 %25, 4294967295
  br label %49

49:                                               ; preds = %47, %49
  %50 = phi i64 [ 1, %47 ], [ %53, %49 ]
  %51 = getelementptr inbounds [50 x [15 x i8]], [50 x [15 x i8]]* %2, i64 0, i64 %50, i64 0
  %52 = call i32 (i8*, ...) @printf(i8* nonnull dereferenceable(1) getelementptr inbounds ([4 x i8], [4 x i8]* @.str.2, i64 0, i64 0), i8* nonnull %51)
  %53 = add nuw nsw i64 %50, 1
  %54 = icmp eq i64 %53, %48
  br i1 %54, label %55, label %49, !llvm.loop !11

55:                                               ; preds = %49, %42, %44
  call void @llvm.lifetime.end.p0i8(i64 15, i8* nonnull %8) #6
  call void @llvm.lifetime.end.p0i8(i64 15, i8* nonnull %7) #6
  call void @llvm.lifetime.end.p0i8(i64 750, i8* nonnull %6) #6
  call void @llvm.lifetime.end.p0i8(i64 100, i8* nonnull %5) #6
  ret i32 0
}

; Function Attrs: argmemonly mustprogress nofree nosync nounwind willreturn
declare void @llvm.lifetime.start.p0i8(i64 immarg, i8* nocapture) #1

declare i32 @gets(...) local_unnamed_addr #2

; Function Attrs: nofree nounwind
declare noundef i32 @__isoc99_scanf(i8* nocapture noundef readonly, ...) local_unnamed_addr #3

; Function Attrs: nofree nounwind
declare noundef i32 @__isoc99_sscanf(i8* nocapture noundef readonly, i8* nocapture noundef readonly, ...) local_unnamed_addr #3

; Function Attrs: argmemonly mustprogress nofree nounwind readonly willreturn
declare i64 @strlen(i8* nocapture) local_unnamed_addr #4

; Function Attrs: argmemonly mustprogress nofree nounwind readonly willreturn
declare i32 @strcmp(i8* nocapture, i8* nocapture) local_unnamed_addr #4

; Function Attrs: argmemonly mustprogress nofree nounwind willreturn
declare i8* @strcpy(i8* noalias returned writeonly, i8* noalias nocapture readonly) local_unnamed_addr #5

; Function Attrs: nofree nounwind
declare noundef i32 @printf(i8* nocapture noundef readonly, ...) local_unnamed_addr #3

; Function Attrs: argmemonly mustprogress nofree nosync nounwind willreturn
declare void @llvm.lifetime.end.p0i8(i64 immarg, i8* nocapture) #1


!llvm.module.flags = !{!0, !1, !2, !3}
!llvm.ident = !{!4}

!0 = !{i32 1, !"wchar_size", i32 4}
!1 = !{i32 7, !"PIC Level", i32 2}
!2 = !{i32 7, !"PIE Level", i32 2}
!3 = !{i32 7, !"uwtable", i32 1}
!4 = !{!"clang version 13.0.0"}
!5 = !{!6, !6, i64 0}
!6 = !{!"omnipotent char", !7, i64 0}
!7 = !{!"Simple C/C++ TBAA"}
!8 = distinct !{!8, !9}
!9 = !{!"llvm.loop.mustprogress"}
!10 = distinct !{!10, !9}
!11 = distinct !{!11, !9}
